target datalayout = "e-m:e-p270:32:32-p271:32:32-p272:64:64-i64:64-i128:128-f80:128-n8:16:32:64-S128"
target triple = "x86_64-pc-linux-gnu"

%struct.AVFilterContext = type { ptr, ptr, ptr, ptr, ptr, i32, ptr, ptr, i32, ptr, ptr, i32, i32, ptr, ptr, ptr, ptr, i32, ptr, i32, i32 }
%struct.DrawGraphContext = type { ptr, [4 x ptr], float, float, [4 x ptr], [4 x ptr], [4 x i8], i32, i32, i32, i32, %struct.AVRational, ptr, i32, [4 x i32], [4 x i32], [4 x ptr], [4 x i32], i32, i64 }
%struct.AVRational = type { i32, i32 }

@.str.65 = private unnamed_addr constant [31 x i8] c"max is same or lower than min\0A\00", align 1
@var_names = internal constant [4 x ptr] [ptr @.str.66, ptr @.str.67, ptr @.str.68, ptr null], align 16

; Function Attrs: cold nounwind optsize uwtable
define internal i32 @init(ptr noundef %0) #0 {
  %2 = alloca i32, align 4
  %3 = alloca ptr, align 8
  %4 = alloca ptr, align 8
  %5 = alloca i32, align 4
  %6 = alloca i32, align 4
  %7 = alloca i32, align 4
  store ptr %0, ptr %3, align 8, !tbaa !4
  call void @llvm.lifetime.start.p0(i64 8, ptr %4) #10
  %8 = load ptr, ptr %3, align 8, !tbaa !4
  %9 = getelementptr inbounds nuw %struct.AVFilterContext, ptr %8, i32 0, i32 9
  %10 = load ptr, ptr %9, align 8, !tbaa !9
  store ptr %10, ptr %4, align 8, !tbaa !22
  call void @llvm.lifetime.start.p0(i64 4, ptr %5) #10
  call void @llvm.lifetime.start.p0(i64 4, ptr %6) #10
  %11 = load ptr, ptr %4, align 8, !tbaa !22
  %12 = getelementptr inbounds nuw %struct.DrawGraphContext, ptr %11, i32 0, i32 3
  %13 = load float, ptr %12, align 4, !tbaa !24
  %14 = load ptr, ptr %4, align 8, !tbaa !22
  %15 = getelementptr inbounds nuw %struct.DrawGraphContext, ptr %14, i32 0, i32 2
  %16 = load float, ptr %15, align 8, !tbaa !30
  %17 = fcmp nsz ole float %13, %16
  br i1 %17, label %18, label %20

18:                                               ; preds = %1
  %19 = load ptr, ptr %3, align 8, !tbaa !4
  call void (ptr, i32, ptr, ...) @av_log(ptr noundef %19, i32 noundef 16, ptr noundef @.str.65)
  store i32 -22, ptr %2, align 4
  store i32 1, ptr %7, align 4
  br label %127

20:                                               ; preds = %1
  store i32 0, ptr %6, align 4, !tbaa !31
  br label %21

21:                                               ; preds = %52, %20
  %22 = load i32, ptr %6, align 4, !tbaa !31
  %23 = icmp slt i32 %22, 4
  br i1 %23, label %24, label %55

24:                                               ; preds = %21
  %25 = load ptr, ptr %4, align 8, !tbaa !22
  %26 = getelementptr inbounds nuw %struct.DrawGraphContext, ptr %25, i32 0, i32 4
  %27 = load i32, ptr %6, align 4, !tbaa !31
  %28 = sext i32 %27 to i64
  %29 = getelementptr inbounds [4 x ptr], ptr %26, i64 0, i64 %28
  %30 = load ptr, ptr %29, align 8, !tbaa !32
  %31 = icmp ne ptr %30, null
  br i1 %31, label %32, label %51

32:                                               ; preds = %24
  %33 = load ptr, ptr %4, align 8, !tbaa !22
  %34 = getelementptr inbounds nuw %struct.DrawGraphContext, ptr %33, i32 0, i32 5
  %35 = load i32, ptr %6, align 4, !tbaa !31
  %36 = sext i32 %35 to i64
  %37 = getelementptr inbounds [4 x ptr], ptr %34, i64 0, i64 %36
  %38 = load ptr, ptr %4, align 8, !tbaa !22
  %39 = getelementptr inbounds nuw %struct.DrawGraphContext, ptr %38, i32 0, i32 4
  %40 = load i32, ptr %6, align 4, !tbaa !31
  %41 = sext i32 %40 to i64
  %42 = getelementptr inbounds [4 x ptr], ptr %39, i64 0, i64 %41
  %43 = load ptr, ptr %42, align 8, !tbaa !32
  %44 = load ptr, ptr %3, align 8, !tbaa !4
  %45 = call i32 @av_expr_parse(ptr noundef %37, ptr noundef %43, ptr noundef @var_names, ptr noundef null, ptr noundef null, ptr noundef null, ptr noundef null, i32 noundef 0, ptr noundef %44)
  store i32 %45, ptr %5, align 4, !tbaa !31
  %46 = load i32, ptr %5, align 4, !tbaa !31
  %47 = icmp slt i32 %46, 0
  br i1 %47, label %48, label %50

48:                                               ; preds = %32
  %49 = load i32, ptr %5, align 4, !tbaa !31
  store i32 %49, ptr %2, align 4
  store i32 1, ptr %7, align 4
  br label %127

50:                                               ; preds = %32
  br label %51

51:                                               ; preds = %50, %24
  br label %52

52:                                               ; preds = %51
  %53 = load i32, ptr %6, align 4, !tbaa !31
  %54 = add nsw i32 %53, 1
  store i32 %54, ptr %6, align 4, !tbaa !31
  br label %21, !llvm.loop !33

55:                                               ; preds = %21
  %56 = load ptr, ptr %4, align 8, !tbaa !22
  %57 = getelementptr inbounds nuw %struct.DrawGraphContext, ptr %56, i32 0, i32 15
  %58 = getelementptr inbounds [4 x i32], ptr %57, i64 0, i64 3
  store i32 1, ptr %58, align 4, !tbaa !31
  %59 = load ptr, ptr %4, align 8, !tbaa !22
  %60 = getelementptr inbounds nuw %struct.DrawGraphContext, ptr %59, i32 0, i32 15
  %61 = getelementptr inbounds [4 x i32], ptr %60, i64 0, i64 2
  store i32 1, ptr %61, align 4, !tbaa !31
  %62 = load ptr, ptr %4, align 8, !tbaa !22
  %63 = getelementptr inbounds nuw %struct.DrawGraphContext, ptr %62, i32 0, i32 15
  %64 = getelementptr inbounds [4 x i32], ptr %63, i64 0, i64 1
  store i32 1, ptr %64, align 4, !tbaa !31
  %65 = load ptr, ptr %4, align 8, !tbaa !22
  %66 = getelementptr inbounds nuw %struct.DrawGraphContext, ptr %65, i32 0, i32 15
  %67 = getelementptr inbounds [4 x i32], ptr %66, i64 0, i64 0
  store i32 1, ptr %67, align 4, !tbaa !31
  %68 = load ptr, ptr %4, align 8, !tbaa !22
  %69 = getelementptr inbounds nuw %struct.DrawGraphContext, ptr %68, i32 0, i32 8
  %70 = load i32, ptr %69, align 8, !tbaa !35
  %71 = icmp eq i32 %70, 4
  br i1 %71, label %72, label %126

72:                                               ; preds = %55
  %73 = load ptr, ptr %4, align 8, !tbaa !22
  %74 = getelementptr inbounds nuw %struct.DrawGraphContext, ptr %73, i32 0, i32 17
  %75 = getelementptr inbounds [4 x i32], ptr %74, i64 0, i64 0
  %76 = call ptr @av_fast_realloc(ptr noundef null, ptr noundef %75, i64 noundef 2000)
  %77 = load ptr, ptr %4, align 8, !tbaa !22
  %78 = getelementptr inbounds nuw %struct.DrawGraphContext, ptr %77, i32 0, i32 16
  %79 = getelementptr inbounds [4 x ptr], ptr %78, i64 0, i64 0
  store ptr %76, ptr %79, align 8, !tbaa !36
  %80 = load ptr, ptr %4, align 8, !tbaa !22
  %81 = getelementptr inbounds nuw %struct.DrawGraphContext, ptr %80, i32 0, i32 17
  %82 = getelementptr inbounds [4 x i32], ptr %81, i64 0, i64 1
  %83 = call ptr @av_fast_realloc(ptr noundef null, ptr noundef %82, i64 noundef 2000)
  %84 = load ptr, ptr %4, align 8, !tbaa !22
  %85 = getelementptr inbounds nuw %struct.DrawGraphContext, ptr %84, i32 0, i32 16
  %86 = getelementptr inbounds [4 x ptr], ptr %85, i64 0, i64 1
  store ptr %83, ptr %86, align 8, !tbaa !36
  %87 = load ptr, ptr %4, align 8, !tbaa !22
  %88 = getelementptr inbounds nuw %struct.DrawGraphContext, ptr %87, i32 0, i32 17
  %89 = getelementptr inbounds [4 x i32], ptr %88, i64 0, i64 2
  %90 = call ptr @av_fast_realloc(ptr noundef null, ptr noundef %89, i64 noundef 2000)
  %91 = load ptr, ptr %4, align 8, !tbaa !22
  %92 = getelementptr inbounds nuw %struct.DrawGraphContext, ptr %91, i32 0, i32 16
  %93 = getelementptr inbounds [4 x ptr], ptr %92, i64 0, i64 2
  store ptr %90, ptr %93, align 8, !tbaa !36
  %94 = load ptr, ptr %4, align 8, !tbaa !22
  %95 = getelementptr inbounds nuw %struct.DrawGraphContext, ptr %94, i32 0, i32 17
  %96 = getelementptr inbounds [4 x i32], ptr %95, i64 0, i64 3
  %97 = call ptr @av_fast_realloc(ptr noundef null, ptr noundef %96, i64 noundef 2000)
  %98 = load ptr, ptr %4, align 8, !tbaa !22
  %99 = getelementptr inbounds nuw %struct.DrawGraphContext, ptr %98, i32 0, i32 16
  %100 = getelementptr inbounds [4 x ptr], ptr %99, i64 0, i64 3
  store ptr %97, ptr %100, align 8, !tbaa !36
  %101 = load ptr, ptr %4, align 8, !tbaa !22
  %102 = getelementptr inbounds nuw %struct.DrawGraphContext, ptr %101, i32 0, i32 16
  %103 = getelementptr inbounds [4 x ptr], ptr %102, i64 0, i64 0
  %104 = load ptr, ptr %103, align 8, !tbaa !36
  %105 = icmp ne ptr %104, null
  br i1 %105, label %106, label %124

106:                                              ; preds = %72
  %107 = load ptr, ptr %4, align 8, !tbaa !22
  %108 = getelementptr inbounds nuw %struct.DrawGraphContext, ptr %107, i32 0, i32 16
  %109 = getelementptr inbounds [4 x ptr], ptr %108, i64 0, i64 1
  %110 = load ptr, ptr %109, align 8, !tbaa !36
  %111 = icmp ne ptr %110, null
  br i1 %111, label %112, label %124

112:                                              ; preds = %106
  %113 = load ptr, ptr %4, align 8, !tbaa !22
  %114 = getelementptr inbounds nuw %struct.DrawGraphContext, ptr %113, i32 0, i32 16
  %115 = getelementptr inbounds [4 x ptr], ptr %114, i64 0, i64 2
  %116 = load ptr, ptr %115, align 8, !tbaa !36
  %117 = icmp ne ptr %116, null
  br i1 %117, label %118, label %124

118:                                              ; preds = %112
  %119 = load ptr, ptr %4, align 8, !tbaa !22
  %120 = getelementptr inbounds nuw %struct.DrawGraphContext, ptr %119, i32 0, i32 16
  %121 = getelementptr inbounds [4 x ptr], ptr %120, i64 0, i64 3
  %122 = load ptr, ptr %121, align 8, !tbaa !36
  %123 = icmp ne ptr %122, null
  br i1 %123, label %125, label %124

124:                                              ; preds = %118, %112, %106, %72
  store i32 -12, ptr %2, align 4
  store i32 1, ptr %7, align 4
  br label %127

125:                                              ; preds = %118
  br label %126

126:                                              ; preds = %125, %55
  store i32 0, ptr %2, align 4
  store i32 1, ptr %7, align 4
  br label %127

127:                                              ; preds = %126, %124, %48, %18
  call void @llvm.lifetime.end.p0(i64 4, ptr %6) #10
  call void @llvm.lifetime.end.p0(i64 4, ptr %5) #10
  call void @llvm.lifetime.end.p0(i64 8, ptr %4) #10
  %128 = load i32, ptr %2, align 4
  ret i32 %128
}