; Function Attrs: cold nounwind optsize uwtable
define internal range(i32 -2147483648, 1) i32 @init(ptr noundef %0) #0 {
  %2 = getelementptr inbounds nuw i8, ptr %0, i64 72
  %3 = load ptr, ptr %2, align 8, !tbaa !4
  %4 = getelementptr inbounds nuw i8, ptr %3, i64 44
  %5 = load float, ptr %4, align 4, !tbaa !20
  %6 = getelementptr inbounds nuw i8, ptr %3, i64 40
  %7 = load float, ptr %6, align 8, !tbaa !26
  %8 = fcmp nsz ugt float %5, %7
  br i1 %8, label %.preheader, label %11

.preheader:                                       ; preds = %1
  %9 = getelementptr inbounds nuw i8, ptr %3, i64 48
  %10 = getelementptr inbounds nuw i8, ptr %3, i64 80
  br label %12

11:                                               ; preds = %1
  tail call void (ptr, i32, ptr, ...) @av_log(ptr noundef nonnull %0, i32 noundef 16, ptr noundef nonnull @.str.65) #8
  br label %.loopexit

12:                                               ; preds = %.preheader, %19
  %indvars.iv = phi i64 [ 0, %.preheader ], [ %indvars.iv.next, %19 ]
  %13 = getelementptr inbounds nuw [4 x ptr], ptr %9, i64 0, i64 %indvars.iv
  %14 = load ptr, ptr %13, align 8, !tbaa !27
  %.not38 = icmp eq ptr %14, null
  br i1 %.not38, label %19, label %15

15:                                               ; preds = %12
  %16 = getelementptr inbounds nuw [4 x ptr], ptr %10, i64 0, i64 %indvars.iv
  %17 = tail call i32 @av_expr_parse(ptr noundef nonnull %16, ptr noundef nonnull %14, ptr noundef nonnull @var_names, ptr noundef null, ptr noundef null, ptr noundef null, ptr noundef null, i32 noundef 0, ptr noundef %0) #8
  %18 = icmp slt i32 %17, 0
  br i1 %18, label %.loopexit, label %19

19:                                               ; preds = %12, %15
  %indvars.iv.next = add nuw nsw i64 %indvars.iv, 1
  %exitcond.not = icmp eq i64 %indvars.iv.next, 4
  br i1 %exitcond.not, label %20, label %12, !llvm.loop !28

20:                                               ; preds = %19
  %21 = getelementptr inbounds nuw i8, ptr %3, i64 172
  %22 = getelementptr inbounds nuw i8, ptr %3, i64 184
  store i32 1, ptr %22, align 4, !tbaa !30
  %23 = getelementptr inbounds nuw i8, ptr %3, i64 180
  store i32 1, ptr %23, align 4, !tbaa !30
  %24 = getelementptr inbounds nuw i8, ptr %3, i64 176
  store i32 1, ptr %24, align 4, !tbaa !30
  store i32 1, ptr %21, align 4, !tbaa !30
  %25 = getelementptr inbounds nuw i8, ptr %3, i64 120
  %26 = load i32, ptr %25, align 8, !tbaa !31
  %27 = icmp eq i32 %26, 4
  br i1 %27, label %28, label %46

28:                                               ; preds = %20
  %29 = getelementptr inbounds nuw i8, ptr %3, i64 224
  %30 = tail call ptr @av_fast_realloc(ptr noundef null, ptr noundef nonnull %29, i64 noundef 2000) #8
  %31 = getelementptr inbounds nuw i8, ptr %3, i64 192
  store ptr %30, ptr %31, align 8, !tbaa !32
  %32 = getelementptr inbounds nuw i8, ptr %3, i64 228
  %33 = tail call ptr @av_fast_realloc(ptr noundef null, ptr noundef nonnull %32, i64 noundef 2000) #8
  %34 = getelementptr inbounds nuw i8, ptr %3, i64 200
  store ptr %33, ptr %34, align 8, !tbaa !32
  %35 = getelementptr inbounds nuw i8, ptr %3, i64 232
  %36 = tail call ptr @av_fast_realloc(ptr noundef null, ptr noundef nonnull %35, i64 noundef 2000) #8
  %37 = getelementptr inbounds nuw i8, ptr %3, i64 208
  store ptr %36, ptr %37, align 8, !tbaa !32
  %38 = getelementptr inbounds nuw i8, ptr %3, i64 236
  %39 = tail call ptr @av_fast_realloc(ptr noundef null, ptr noundef nonnull %38, i64 noundef 2000) #8
  %40 = getelementptr inbounds nuw i8, ptr %3, i64 216
  store ptr %39, ptr %40, align 8, !tbaa !32
  %41 = load ptr, ptr %31, align 8, !tbaa !32
  %.not = icmp eq ptr %41, null
  br i1 %.not, label %.loopexit, label %42

42:                                               ; preds = %28
  %43 = load ptr, ptr %34, align 8, !tbaa !32
  %.not35 = icmp eq ptr %43, null
  br i1 %.not35, label %.loopexit, label %44

44:                                               ; preds = %42
  %45 = load ptr, ptr %37, align 8, !tbaa !32
  %.not36 = icmp eq ptr %45, null
  %.not37 = icmp eq ptr %39, null
  %or.cond = select i1 %.not36, i1 true, i1 %.not37
  br i1 %or.cond, label %.loopexit, label %46

46:                                               ; preds = %44, %20
  br label %.loopexit

.loopexit:                                        ; preds = %15, %28, %42, %44, %46, %11
  %.032 = phi i32 [ -22, %11 ], [ 0, %46 ], [ -12, %44 ], [ -12, %42 ], [ -12, %28 ], [ %17, %15 ]
  ret i32 %.032
}